target datalayout = "e-m:e-p270:32:32-p271:32:32-p272:64:64-i64:64-i128:128-f80:128-n8:16:32:64-S128"
target triple = "x86_64-pc-linux-gnu"

%struct.zstream_funcs = type { ptr, ptr, ptr }
%struct.zstream = type { i64, i64, i64, i64, %struct.z_stream_s, ptr }
%struct.z_stream_s = type { ptr, i32, i64, ptr, i32, i64, ptr, ptr, ptr, ptr, ptr, i32, i64, i64 }
%struct.zstream_run_args = type { ptr, ptr, i64, i32, i32, i32, i32 }

; Function Attrs: nounwind sspstrong uwtable
define internal ptr @zstream_run_once(ptr noundef %0) #0 {
  %2 = alloca ptr, align 8
  %3 = alloca ptr, align 8
  %4 = alloca ptr, align 8
  %5 = alloca i64, align 8
  store ptr %0, ptr %2, align 8, !tbaa !77
  call void @llvm.lifetime.start.p0(i64 8, ptr %3) #23
  %6 = load ptr, ptr %2, align 8, !tbaa !77
  store ptr %6, ptr %3, align 8, !tbaa !107
  call void @llvm.lifetime.start.p0(i64 8, ptr %4) #23
  %7 = load ptr, ptr %3, align 8, !tbaa !107
  %8 = getelementptr inbounds nuw %struct.zstream_run_args, ptr %7, i32 0, i32 0
  %9 = load ptr, ptr %8, align 8, !tbaa !99
  store ptr %9, ptr %4, align 8, !tbaa !21
  call void @llvm.lifetime.start.p0(i64 8, ptr %5) #23
  %10 = load ptr, ptr %4, align 8, !tbaa !21
  %11 = getelementptr inbounds nuw %struct.zstream, ptr %10, i32 0, i32 5
  %12 = load ptr, ptr %11, align 8, !tbaa !93
  %13 = getelementptr inbounds nuw %struct.zstream_funcs, ptr %12, i32 0, i32 2
  %14 = load ptr, ptr %13, align 8, !tbaa !113
  %15 = load ptr, ptr %4, align 8, !tbaa !21
  %16 = getelementptr inbounds nuw %struct.zstream, ptr %15, i32 0, i32 4
  %17 = load ptr, ptr %3, align 8, !tbaa !107
  %18 = getelementptr inbounds nuw %struct.zstream_run_args, ptr %17, i32 0, i32 3
  %19 = load i32, ptr %18, align 8, !tbaa !103
  %20 = call i32 %14(ptr noundef %16, i32 noundef %19)
  %21 = sext i32 %20 to i64
  store i64 %21, ptr %5, align 8, !tbaa !6
  %22 = load i64, ptr %5, align 8, !tbaa !6
  %23 = inttoptr i64 %22 to ptr
  call void @llvm.lifetime.end.p0(i64 8, ptr %5) #23
  call void @llvm.lifetime.end.p0(i64 8, ptr %4) #23
  call void @llvm.lifetime.end.p0(i64 8, ptr %3) #23
  ret ptr %23
}