; Function Attrs: nounwind sspstrong uwtable
define internal ptr @zstream_run_once(ptr noundef readonly captures(none) %0) #0 {
  %2 = load ptr, ptr %0, align 8, !tbaa !61
  %3 = getelementptr inbounds nuw i8, ptr %2, i64 144
  %4 = load ptr, ptr %3, align 8, !tbaa !56
  %5 = getelementptr inbounds nuw i8, ptr %4, i64 16
  %6 = load ptr, ptr %5, align 8, !tbaa !222
  %7 = getelementptr inbounds nuw i8, ptr %2, i64 32
  %8 = getelementptr inbounds nuw i8, ptr %0, i64 24
  %9 = load i32, ptr %8, align 8, !tbaa !66
  %10 = tail call i32 %6(ptr noundef nonnull %7, i32 noundef %9) #18
  %11 = sext i32 %10 to i64
  %12 = inttoptr i64 %11 to ptr
  ret ptr %12
}